; Function Attrs: nounwind uwtable
define void @Gia_ManMarkSeqGiaWithBoxes(ptr noundef %0, i32 noundef %1) local_unnamed_addr #0 {
  %3 = getelementptr inbounds nuw i8, ptr %0, i64 736
  %4 = load ptr, ptr %3, align 8, !tbaa !31
  %5 = tail call i32 @Tim_ManPiNum(ptr noundef %4) #19
  %6 = tail call i32 @Tim_ManPoNum(ptr noundef %4) #19
  %.not = icmp eq i32 %1, 0
  br i1 %.not, label %9, label %7

7:                                                ; preds = %2
  %8 = tail call i32 @Gia_ManRegBoxNum(ptr noundef nonnull %0) #19
  br label %9

9:                                                ; preds = %2, %7
  %10 = phi i32 [ %8, %7 ], [ 0, %2 ]
  tail call void @Gia_ManIncrementTravId(ptr noundef nonnull %0) #19
  %11 = getelementptr i8, ptr %0, i64 32
  %12 = getelementptr inbounds nuw i8, ptr %0, i64 176
  %13 = load i32, ptr %12, align 8, !tbaa !30
  %14 = getelementptr inbounds nuw i8, ptr %0, i64 616
  %15 = load ptr, ptr %14, align 8, !tbaa !3
  store i32 %13, ptr %15, align 4, !tbaa !29
  %16 = sub nsw i32 %5, %10
  %17 = icmp sgt i32 %16, 0
  br i1 %17, label %.lr.ph, label %._crit_edge

.lr.ph:                                           ; preds = %9
  %18 = getelementptr i8, ptr %0, i64 64
  %.val51 = load ptr, ptr %18, align 8, !tbaa !37
  %19 = getelementptr i8, ptr %.val51, i64 8
  %.val51.val = load ptr, ptr %19, align 8, !tbaa !35
  %wide.trip.count = zext nneg i32 %16 to i64
  br label %20

20:                                               ; preds = %.lr.ph, %20
  %indvars.iv = phi i64 [ 0, %.lr.ph ], [ %indvars.iv.next, %20 ]
  %21 = getelementptr inbounds nuw i32, ptr %.val51.val, i64 %indvars.iv
  %22 = load i32, ptr %21, align 4, !tbaa !29
  %23 = zext i32 %22 to i64
  %sext.i57 = shl nuw i64 %23, 32
  %24 = ashr exact i64 %sext.i57, 30
  %25 = getelementptr inbounds i8, ptr %15, i64 %24
  store i32 %13, ptr %25, align 4, !tbaa !29
  %indvars.iv.next = add nuw nsw i64 %indvars.iv, 1
  %exitcond.not = icmp eq i64 %indvars.iv.next, %wide.trip.count
  br i1 %exitcond.not, label %._crit_edge, label %20, !llvm.loop !42

._crit_edge:                                      ; preds = %20, %9
  %26 = tail call i32 @Gia_ManRegBoxNum(ptr noundef nonnull %0) #19
  %27 = tail call noalias dereferenceable_or_null(16) ptr @malloc(i64 noundef 16) #21
  %28 = add i32 %26, -1
  %or.cond.i = icmp ult i32 %28, 15
  %spec.store.select.i = select i1 %or.cond.i, i32 16, i32 %26
  %29 = getelementptr inbounds nuw i8, ptr %27, i64 4
  store i32 0, ptr %29, align 4, !tbaa !34
  store i32 %spec.store.select.i, ptr %27, align 8, !tbaa !36
  %.not.i = icmp eq i32 %spec.store.select.i, 0
  br i1 %.not.i, label %Vec_IntAlloc.exit, label %30

30:                                               ; preds = %._crit_edge
  %31 = sext i32 %spec.store.select.i to i64
  %32 = shl nsw i64 %31, 2
  %33 = tail call noalias ptr @malloc(i64 noundef %32) #21
  br label %Vec_IntAlloc.exit

Vec_IntAlloc.exit:                                ; preds = %._crit_edge, %30
  %34 = phi ptr [ %33, %30 ], [ null, %._crit_edge ]
  %35 = getelementptr inbounds nuw i8, ptr %27, i64 8
  store ptr %34, ptr %35, align 8, !tbaa !35
  %36 = getelementptr i8, ptr %0, i64 16
  %.val45 = load i32, ptr %36, align 8, !tbaa !32
  %37 = getelementptr i8, ptr %0, i64 72
  %.val46 = load ptr, ptr %37, align 8, !tbaa !33
  %38 = getelementptr i8, ptr %.val46, i64 4
  %.val46.val = load i32, ptr %38, align 4, !tbaa !34
  %39 = add i32 %.val45, %6
  %40 = sub i32 %.val46.val, %39
  %41 = add i32 %.val45, %10
  %42 = sub i32 %.val46.val, %41
  %43 = icmp slt i32 %40, %42
  br i1 %43, label %.lr.ph74.preheader, label %._crit_edge75

.lr.ph74.preheader:                               ; preds = %Vec_IntAlloc.exit
  %44 = sext i32 %40 to i64
  br label %.lr.ph74

.lr.ph74:                                         ; preds = %.lr.ph74.preheader, %.lr.ph74
  %indvars.iv81 = phi i64 [ %44, %.lr.ph74.preheader ], [ %indvars.iv.next82, %.lr.ph74 ]
  %.val4473 = phi ptr [ %.val46, %.lr.ph74.preheader ], [ %.val44, %.lr.ph74 ]
  %.val52 = load ptr, ptr %11, align 8, !tbaa !28
  %45 = getelementptr i8, ptr %.val4473, i64 8
  %.val53.val = load ptr, ptr %45, align 8, !tbaa !35
  %46 = getelementptr inbounds i32, ptr %.val53.val, i64 %indvars.iv81
  %47 = load i32, ptr %46, align 4, !tbaa !29
  %48 = zext i32 %47 to i64
  %49 = load i32, ptr %12, align 8, !tbaa !30
  %50 = load ptr, ptr %14, align 8, !tbaa !3
  %sext.i59 = shl nuw i64 %48, 32
  %51 = ashr exact i64 %sext.i59, 30
  %52 = getelementptr inbounds i8, ptr %50, i64 %51
  store i32 %49, ptr %52, align 4, !tbaa !29
  %53 = load i32, ptr %46, align 4, !tbaa !29
  %54 = sext i32 %53 to i64
  %55 = getelementptr inbounds %struct.Gia_Obj_t_, ptr %.val52, i64 %54
  %56 = load i64, ptr %55, align 4
  %57 = and i64 %56, 536870911
  %58 = sub nsw i64 0, %57
  %59 = getelementptr inbounds %struct.Gia_Obj_t_, ptr %55, i64 %58
  tail call void @Gia_ManMarkSeqGiaWithBoxes_rec(ptr noundef nonnull %0, ptr noundef nonnull %59, ptr noundef nonnull %27)
  %indvars.iv.next82 = add nsw i64 %indvars.iv81, 1
  %.val43 = load i32, ptr %36, align 8, !tbaa !32
  %.val44 = load ptr, ptr %37, align 8, !tbaa !33
  %60 = getelementptr i8, ptr %.val44, i64 4
  %.val44.val = load i32, ptr %60, align 4, !tbaa !34
  %61 = add i32 %.val43, %10
  %62 = sub i32 %.val44.val, %61
  %63 = sext i32 %62 to i64
  %64 = icmp slt i64 %indvars.iv.next82, %63
  br i1 %64, label %.lr.ph74, label %._crit_edge75, !llvm.loop !43

._crit_edge75:                                    ; preds = %.lr.ph74, %Vec_IntAlloc.exit
  br i1 %.not, label %.critedge, label %.preheader

.preheader:                                       ; preds = %._crit_edge75
  %.val76 = load i32, ptr %29, align 4, !tbaa !34
  %65 = icmp sgt i32 %.val76, 0
  br i1 %65, label %.lr.ph78, label %.critedge

.lr.ph78:                                         ; preds = %.preheader, %66
  %indvars.iv84 = phi i64 [ %indvars.iv.next85, %66 ], [ 0, %.preheader ]
  %.val48 = load ptr, ptr %11, align 8, !tbaa !28
  %.not42 = icmp eq ptr %.val48, null
  br i1 %.not42, label %.critedge, label %66

66:                                               ; preds = %.lr.ph78
  %.val47 = load ptr, ptr %35, align 8, !tbaa !35
  %67 = getelementptr inbounds nuw i32, ptr %.val47, i64 %indvars.iv84
  %68 = load i32, ptr %67, align 4, !tbaa !29
  %69 = sext i32 %68 to i64
  %70 = getelementptr inbounds %struct.Gia_Obj_t_, ptr %.val48, i64 %69
  %71 = load i32, ptr %12, align 8, !tbaa !30
  %72 = load ptr, ptr %14, align 8, !tbaa !3
  %73 = shl nsw i64 %69, 2
  %74 = getelementptr inbounds i8, ptr %72, i64 %73
  store i32 %71, ptr %74, align 4, !tbaa !29
  %75 = load i64, ptr %70, align 4
  %76 = and i64 %75, 536870911
  %77 = sub nsw i64 0, %76
  %78 = getelementptr inbounds %struct.Gia_Obj_t_, ptr %70, i64 %77
  tail call void @Gia_ManMarkSeqGiaWithBoxes_rec(ptr noundef nonnull %0, ptr noundef nonnull %78, ptr noundef nonnull %27)
  %indvars.iv.next85 = add nuw nsw i64 %indvars.iv84, 1
  %.val = load i32, ptr %29, align 4, !tbaa !34
  %79 = sext i32 %.val to i64
  %80 = icmp slt i64 %indvars.iv.next85, %79
  br i1 %80, label %.lr.ph78, label %.critedge, !llvm.loop !44

.critedge:                                        ; preds = %66, %.lr.ph78, %.preheader, %._crit_edge75
  %81 = load ptr, ptr %35, align 8, !tbaa !35
  %.not.i62 = icmp eq ptr %81, null
  br i1 %.not.i62, label %Vec_IntFree.exit, label %82

82:                                               ; preds = %.critedge
  tail call void @free(ptr noundef nonnull %81) #19
  br label %Vec_IntFree.exit

Vec_IntFree.exit:                                 ; preds = %.critedge, %82
  tail call void @free(ptr noundef nonnull %27) #19
  ret void
}